; Function Attrs: nounwind uwtable
define internal i32 @tls_corrupt_read(ptr noundef %0, ptr noundef %1, i32 noundef %2) #1 {
  %4 = tail call ptr @BIO_next(ptr noundef %0) #4
  %5 = tail call i32 @BIO_read(ptr noundef %4, ptr noundef %1, i32 noundef %2) #4
  %6 = tail call ptr @BIO_next(ptr noundef %0) #4
  %7 = tail call i32 @BIO_test_flags(ptr noundef %6, i32 noundef 15) #4
  tail call void @BIO_clear_flags(ptr noundef %0, i32 noundef 15) #4
  tail call void @BIO_set_flags(ptr noundef %0, i32 noundef %7) #4
  ret i32 %5
}